; ModuleID = 'source-C-CXX/30/279.c'
source_filename = "source-C-CXX/30/279.c"
target datalayout = "e-m:e-p270:32:32-p271:32:32-p272:64:64-i64:64-f80:128-n8:16:32:64-S128"
target triple = "x86_64-pc-linux-gnu"

%struct.student = type { [20 x i8], [20 x i8], [2 x i8], [20 x i8], [10 x i8], [20 x i8], %struct.student* }

@head = dso_local local_unnamed_addr global %struct.student* null, align 8
@p = dso_local local_unnamed_addr global %struct.student* null, align 8
@.str = private unnamed_addr constant [3 x i8] c"%s\00", align 1
@.str.1 = private unnamed_addr constant [11 x i8] c"%s%s%s%s%s\00", align 1
@.str.2 = private unnamed_addr constant [19 x i8] c"%s %s %s %s %s %s\0A\00", align 1

; Function Attrs: nofree nounwind sspstrong uwtable
define dso_local void @input() local_unnamed_addr #0 {
  store %struct.student* null, %struct.student** @head, align 8, !tbaa !5
  %1 = tail call noalias align 16 dereferenceable_or_null(100) i8* @malloc(i64 100) #3
  %2 = bitcast i8* %1 to %struct.student*
  store i8* %1, i8** bitcast (%struct.student** @p to i8**), align 8, !tbaa !5
  %3 = getelementptr inbounds %struct.student, %struct.student* %2, i64 0, i32 0, i64 0
  %4 = tail call i32 (i8*, ...) @__isoc99_scanf(i8* getelementptr inbounds ([3 x i8], [3 x i8]* @.str, i64 0, i64 0), i8* %3)
  %5 = load %struct.student*, %struct.student** @p, align 8, !tbaa !5
  %6 = getelementptr inbounds %struct.student, %struct.student* %5, i64 0, i32 0, i64 0
  %7 = load i8, i8* %6, align 8, !tbaa !9
  %8 = icmp eq i8 %7, 101
  br i1 %8, label %45, label %9

9:                                                ; preds = %0
  %10 = getelementptr inbounds %struct.student, %struct.student* %5, i64 0, i32 1, i64 0
  %11 = getelementptr inbounds %struct.student, %struct.student* %5, i64 0, i32 2, i64 0
  %12 = getelementptr inbounds %struct.student, %struct.student* %5, i64 0, i32 3
  %13 = getelementptr inbounds %struct.student, %struct.student* %5, i64 0, i32 4
  %14 = getelementptr inbounds %struct.student, %struct.student* %5, i64 0, i32 5, i64 0
  %15 = tail call i32 (i8*, ...) @__isoc99_scanf(i8* getelementptr inbounds ([11 x i8], [11 x i8]* @.str.1, i64 0, i64 0), i8* nonnull %10, i8* nonnull %11, [20 x i8]* nonnull %12, [10 x i8]* nonnull %13, i8* nonnull %14)
  %16 = load %struct.student*, %struct.student** @p, align 8, !tbaa !5
  %17 = getelementptr inbounds %struct.student, %struct.student* %16, i64 0, i32 6
  store %struct.student* null, %struct.student** %17, align 8, !tbaa !10
  store %struct.student* %16, %struct.student** @head, align 8, !tbaa !5
  %18 = tail call noalias align 16 dereferenceable_or_null(100) i8* @malloc(i64 100) #3
  %19 = bitcast i8* %18 to %struct.student*
  store i8* %18, i8** bitcast (%struct.student** @p to i8**), align 8, !tbaa !5
  %20 = getelementptr inbounds %struct.student, %struct.student* %19, i64 0, i32 0, i64 0
  %21 = tail call i32 (i8*, ...) @__isoc99_scanf(i8* getelementptr inbounds ([3 x i8], [3 x i8]* @.str, i64 0, i64 0), i8* %20)
  %22 = load %struct.student*, %struct.student** @p, align 8, !tbaa !5
  %23 = getelementptr inbounds %struct.student, %struct.student* %22, i64 0, i32 0, i64 0
  %24 = load i8, i8* %23, align 8, !tbaa !9
  %25 = icmp eq i8 %24, 101
  br i1 %25, label %45, label %26

26:                                               ; preds = %9, %26
  %27 = phi %struct.student* [ %41, %26 ], [ %22, %9 ]
  %28 = getelementptr inbounds %struct.student, %struct.student* %27, i64 0, i32 1, i64 0
  %29 = getelementptr inbounds %struct.student, %struct.student* %27, i64 0, i32 2, i64 0
  %30 = getelementptr inbounds %struct.student, %struct.student* %27, i64 0, i32 3
  %31 = getelementptr inbounds %struct.student, %struct.student* %27, i64 0, i32 4
  %32 = getelementptr inbounds %struct.student, %struct.student* %27, i64 0, i32 5, i64 0
  %33 = tail call i32 (i8*, ...) @__isoc99_scanf(i8* getelementptr inbounds ([11 x i8], [11 x i8]* @.str.1, i64 0, i64 0), i8* nonnull %28, i8* nonnull %29, [20 x i8]* nonnull %30, [10 x i8]* nonnull %31, i8* nonnull %32)
  %34 = load %struct.student*, %struct.student** @head, align 8, !tbaa !5
  %35 = load %struct.student*, %struct.student** @p, align 8, !tbaa !5
  %36 = getelementptr inbounds %struct.student, %struct.student* %35, i64 0, i32 6
  store %struct.student* %34, %struct.student** %36, align 8, !tbaa !10
  store %struct.student* %35, %struct.student** @head, align 8, !tbaa !5
  %37 = tail call noalias align 16 dereferenceable_or_null(100) i8* @malloc(i64 100) #3
  %38 = bitcast i8* %37 to %struct.student*
  store i8* %37, i8** bitcast (%struct.student** @p to i8**), align 8, !tbaa !5
  %39 = getelementptr inbounds %struct.student, %struct.student* %38, i64 0, i32 0, i64 0
  %40 = tail call i32 (i8*, ...) @__isoc99_scanf(i8* getelementptr inbounds ([3 x i8], [3 x i8]* @.str, i64 0, i64 0), i8* %39)
  %41 = load %struct.student*, %struct.student** @p, align 8, !tbaa !5
  %42 = getelementptr inbounds %struct.student, %struct.student* %41, i64 0, i32 0, i64 0
  %43 = load i8, i8* %42, align 8, !tbaa !9
  %44 = icmp eq i8 %43, 101
  br i1 %44, label %45, label %26, !llvm.loop !12

45:                                               ; preds = %26, %9, %0
  %46 = load %struct.student*, %struct.student** @head, align 8, !tbaa !5
  store %struct.student* %46, %struct.student** @p, align 8, !tbaa !5
  ret void
}

; Function Attrs: inaccessiblememonly mustprogress nofree nounwind willreturn
declare noalias noundef align 16 i8* @malloc(i64 noundef) local_unnamed_addr #1

; Function Attrs: nofree nounwind
declare noundef i32 @__isoc99_scanf(i8* nocapture noundef readonly, ...) local_unnamed_addr #2

; Function Attrs: nofree nounwind sspstrong uwtable
define dso_local void @output() local_unnamed_addr #0 {
  %1 = load %struct.student*, %struct.student** @head, align 8, !tbaa !5
  %2 = icmp eq %struct.student* %1, null
  br i1 %2, label %18, label %3

3:                                                ; preds = %0
  %4 = load %struct.student*, %struct.student** @p, align 8, !tbaa !5
  br label %5

5:                                                ; preds = %3, %5
  %6 = phi %struct.student* [ %4, %3 ], [ %16, %5 ]
  %7 = getelementptr inbounds %struct.student, %struct.student* %6, i64 0, i32 0, i64 0
  %8 = getelementptr inbounds %struct.student, %struct.student* %6, i64 0, i32 1, i64 0
  %9 = getelementptr inbounds %struct.student, %struct.student* %6, i64 0, i32 2, i64 0
  %10 = getelementptr inbounds %struct.student, %struct.student* %6, i64 0, i32 3, i64 0
  %11 = getelementptr inbounds %struct.student, %struct.student* %6, i64 0, i32 4, i64 0
  %12 = getelementptr inbounds %struct.student, %struct.student* %6, i64 0, i32 5, i64 0
  %13 = tail call i32 (i8*, ...) @printf(i8* nonnull dereferenceable(1) getelementptr inbounds ([19 x i8], [19 x i8]* @.str.2, i64 0, i64 0), i8* %7, i8* nonnull %8, i8* nonnull %9, i8* nonnull %10, i8* nonnull %11, i8* nonnull %12)
  %14 = load %struct.student*, %struct.student** @p, align 8, !tbaa !5
  %15 = getelementptr inbounds %struct.student, %struct.student* %14, i64 0, i32 6
  %16 = load %struct.student*, %struct.student** %15, align 8, !tbaa !10
  store %struct.student* %16, %struct.student** @p, align 8, !tbaa !5
  %17 = icmp eq %struct.student* %16, null
  br i1 %17, label %18, label %5, !llvm.loop !14

18:                                               ; preds = %5, %0
  ret void
}

; Function Attrs: nofree nounwind
declare noundef i32 @printf(i8* nocapture noundef readonly, ...) local_unnamed_addr #2

; Function Attrs: nofree nounwind sspstrong uwtable
define dso_local void @main() local_unnamed_addr #0 {
  tail call void @input()
  %1 = load %struct.student*, %struct.student** @head, align 8, !tbaa !5
  %2 = icmp eq %struct.student* %1, null
  br i1 %2, label %18, label %3

3:                                                ; preds = %0
  %4 = load %struct.student*, %struct.student** @p, align 8, !tbaa !5
  br label %5

5:                                                ; preds = %5, %3
  %6 = phi %struct.student* [ %4, %3 ], [ %16, %5 ]
  %7 = getelementptr inbounds %struct.student, %struct.student* %6, i64 0, i32 0, i64 0
  %8 = getelementptr inbounds %struct.student, %struct.student* %6, i64 0, i32 1, i64 0
  %9 = getelementptr inbounds %struct.student, %struct.student* %6, i64 0, i32 2, i64 0
  %10 = getelementptr inbounds %struct.student, %struct.student* %6, i64 0, i32 3, i64 0
  %11 = getelementptr inbounds %struct.student, %struct.student* %6, i64 0, i32 4, i64 0
  %12 = getelementptr inbounds %struct.student, %struct.student* %6, i64 0, i32 5, i64 0
  %13 = tail call i32 (i8*, ...) @printf(i8* nonnull dereferenceable(1) getelementptr inbounds ([19 x i8], [19 x i8]* @.str.2, i64 0, i64 0), i8* %7, i8* nonnull %8, i8* nonnull %9, i8* nonnull %10, i8* nonnull %11, i8* nonnull %12) #3
  %14 = load %struct.student*, %struct.student** @p, align 8, !tbaa !5
  %15 = getelementptr inbounds %struct.student, %struct.student* %14, i64 0, i32 6
  %16 = load %struct.student*, %struct.student** %15, align 8, !tbaa !10
  store %struct.student* %16, %struct.student** @p, align 8, !tbaa !5
  %17 = icmp eq %struct.student* %16, null
  br i1 %17, label %18, label %5, !llvm.loop !14

18:                                               ; preds = %5, %0
  ret void
}


!llvm.module.flags = !{!0, !1, !2, !3}
!llvm.ident = !{!4}

!0 = !{i32 1, !"wchar_size", i32 4}
!1 = !{i32 7, !"PIC Level", i32 2}
!2 = !{i32 7, !"PIE Level", i32 2}
!3 = !{i32 7, !"uwtable", i32 1}
!4 = !{!"clang version 13.0.0"}
!5 = !{!6, !6, i64 0}
!6 = !{!"any pointer", !7, i64 0}
!7 = !{!"omnipotent char", !8, i64 0}
!8 = !{!"Simple C/C++ TBAA"}
!9 = !{!7, !7, i64 0}
!10 = !{!11, !6, i64 96}
!11 = !{!"student", !7, i64 0, !7, i64 20, !7, i64 40, !7, i64 42, !7, i64 62, !7, i64 72, !6, i64 96}
!12 = distinct !{!12, !13}
!13 = !{!"llvm.loop.peeled.count", i32 1}
!14 = distinct !{!14, !15}
!15 = !{!"llvm.loop.mustprogress"}
